target datalayout = "e-m:e-p270:32:32-p271:32:32-p272:64:64-i64:64-i128:128-f80:128-n8:16:32:64-S128"
target triple = "x86_64-pc-linux-gnu"

@_ZZL11utf8_decodePKcPiE6limits = internal constant [4 x i32] [i32 255, i32 127, i32 2047, i32 65535], align 16
@.str.14 = private unnamed_addr constant [31 x i8] c"initial position out of string\00", align 1
@.str.15 = private unnamed_addr constant [29 x i8] c"final position out of string\00", align 1

; Function Attrs: mustprogress nounwind uwtable
define internal noundef ptr @_ZL11utf8_decodePKcPi(ptr noundef %0, ptr noundef %1) #3 {
  %3 = alloca ptr, align 8
  %4 = alloca ptr, align 8
  %5 = alloca ptr, align 8
  %6 = alloca ptr, align 8
  %7 = alloca i32, align 4
  %8 = alloca i32, align 4
  %9 = alloca i32, align 4
  %10 = alloca i32, align 4
  %11 = alloca i32, align 4
  store ptr %0, ptr %4, align 8, !tbaa !9
  store ptr %1, ptr %5, align 8, !tbaa !25
  call void @llvm.lifetime.start.p0(i64 8, ptr %6) #5
  %12 = load ptr, ptr %4, align 8, !tbaa !9
  store ptr %12, ptr %6, align 8, !tbaa !9
  call void @llvm.lifetime.start.p0(i64 4, ptr %7) #5
  %13 = load ptr, ptr %6, align 8, !tbaa !9
  %14 = getelementptr inbounds i8, ptr %13, i64 0
  %15 = load i8, ptr %14, align 1, !tbaa !15
  %16 = zext i8 %15 to i32
  store i32 %16, ptr %7, align 4, !tbaa !11
  call void @llvm.lifetime.start.p0(i64 4, ptr %8) #5
  store i32 0, ptr %8, align 4, !tbaa !11
  %17 = load i32, ptr %7, align 4, !tbaa !11
  %18 = icmp ult i32 %17, 128
  br i1 %18, label %19, label %21

19:                                               ; preds = %2
  %20 = load i32, ptr %7, align 4, !tbaa !11
  store i32 %20, ptr %8, align 4, !tbaa !11
  br label %83

21:                                               ; preds = %2
  call void @llvm.lifetime.start.p0(i64 4, ptr %9) #5
  store i32 0, ptr %9, align 4, !tbaa !11
  br label %22

22:                                               ; preds = %48, %21
  %23 = load i32, ptr %7, align 4, !tbaa !11
  %24 = and i32 %23, 64
  %25 = icmp ne i32 %24, 0
  br i1 %25, label %26, label %49

26:                                               ; preds = %22
  call void @llvm.lifetime.start.p0(i64 4, ptr %10) #5
  %27 = load ptr, ptr %6, align 8, !tbaa !9
  %28 = load i32, ptr %9, align 4, !tbaa !11
  %29 = add nsw i32 %28, 1
  store i32 %29, ptr %9, align 4, !tbaa !11
  %30 = sext i32 %29 to i64
  %31 = getelementptr inbounds i8, ptr %27, i64 %30
  %32 = load i8, ptr %31, align 1, !tbaa !15
  %33 = zext i8 %32 to i32
  store i32 %33, ptr %10, align 4, !tbaa !11
  %34 = load i32, ptr %10, align 4, !tbaa !11
  %35 = and i32 %34, 192
  %36 = icmp ne i32 %35, 128
  br i1 %36, label %37, label %38

37:                                               ; preds = %26
  store ptr null, ptr %3, align 8
  store i32 1, ptr %11, align 4
  br label %46

38:                                               ; preds = %26
  %39 = load i32, ptr %8, align 4, !tbaa !11
  %40 = shl i32 %39, 6
  %41 = load i32, ptr %10, align 4, !tbaa !11
  %42 = and i32 %41, 63
  %43 = or i32 %40, %42
  store i32 %43, ptr %8, align 4, !tbaa !11
  %44 = load i32, ptr %7, align 4, !tbaa !11
  %45 = shl i32 %44, 1
  store i32 %45, ptr %7, align 4, !tbaa !11
  store i32 0, ptr %11, align 4
  br label %46

46:                                               ; preds = %38, %37
  call void @llvm.lifetime.end.p0(i64 4, ptr %10) #5
  %47 = load i32, ptr %11, align 4
  switch i32 %47, label %80 [
    i32 0, label %48
  ]

48:                                               ; preds = %46
  br label %22, !llvm.loop !27

49:                                               ; preds = %22
  %50 = load i32, ptr %7, align 4, !tbaa !11
  %51 = and i32 %50, 127
  %52 = load i32, ptr %9, align 4, !tbaa !11
  %53 = mul nsw i32 %52, 5
  %54 = shl i32 %51, %53
  %55 = load i32, ptr %8, align 4, !tbaa !11
  %56 = or i32 %55, %54
  store i32 %56, ptr %8, align 4, !tbaa !11
  %57 = load i32, ptr %9, align 4, !tbaa !11
  %58 = icmp sgt i32 %57, 3
  br i1 %58, label %69, label %59

59:                                               ; preds = %49
  %60 = load i32, ptr %8, align 4, !tbaa !11
  %61 = icmp ugt i32 %60, 1114111
  br i1 %61, label %69, label %62

62:                                               ; preds = %59
  %63 = load i32, ptr %8, align 4, !tbaa !11
  %64 = load i32, ptr %9, align 4, !tbaa !11
  %65 = sext i32 %64 to i64
  %66 = getelementptr inbounds [4 x i32], ptr @_ZZL11utf8_decodePKcPiE6limits, i64 0, i64 %65
  %67 = load i32, ptr %66, align 4, !tbaa !11
  %68 = icmp ule i32 %63, %67
  br i1 %68, label %69, label %70

69:                                               ; preds = %62, %59, %49
  store ptr null, ptr %3, align 8
  store i32 1, ptr %11, align 4
  br label %80

70:                                               ; preds = %62
  %71 = load i32, ptr %8, align 4, !tbaa !11
  %72 = sub i32 %71, 55296
  %73 = icmp ult i32 %72, 2048
  br i1 %73, label %74, label %75

74:                                               ; preds = %70
  store ptr null, ptr %3, align 8
  store i32 1, ptr %11, align 4
  br label %80

75:                                               ; preds = %70
  %76 = load i32, ptr %9, align 4, !tbaa !11
  %77 = load ptr, ptr %6, align 8, !tbaa !9
  %78 = sext i32 %76 to i64
  %79 = getelementptr inbounds i8, ptr %77, i64 %78
  store ptr %79, ptr %6, align 8, !tbaa !9
  store i32 0, ptr %11, align 4
  br label %80

80:                                               ; preds = %75, %74, %69, %46
  call void @llvm.lifetime.end.p0(i64 4, ptr %9) #5
  %81 = load i32, ptr %11, align 4
  switch i32 %81, label %92 [
    i32 0, label %82
  ]

82:                                               ; preds = %80
  br label %83

83:                                               ; preds = %82, %19
  %84 = load ptr, ptr %5, align 8, !tbaa !25
  %85 = icmp ne ptr %84, null
  br i1 %85, label %86, label %89

86:                                               ; preds = %83
  %87 = load i32, ptr %8, align 4, !tbaa !11
  %88 = load ptr, ptr %5, align 8, !tbaa !25
  store i32 %87, ptr %88, align 4, !tbaa !11
  br label %89

89:                                               ; preds = %86, %83
  %90 = load ptr, ptr %6, align 8, !tbaa !9
  %91 = getelementptr inbounds i8, ptr %90, i64 1
  store ptr %91, ptr %3, align 8
  store i32 1, ptr %11, align 4
  br label %92

92:                                               ; preds = %89, %80
  call void @llvm.lifetime.end.p0(i64 4, ptr %8) #5
  call void @llvm.lifetime.end.p0(i64 4, ptr %7) #5
  call void @llvm.lifetime.end.p0(i64 8, ptr %6) #5
  %93 = load ptr, ptr %3, align 8
  ret ptr %93
}

; Function Attrs: mustprogress nounwind uwtable
define internal noundef i32 @_ZL10u_posrelatim(i32 noundef %0, i64 noundef %1) #3 {
  %3 = alloca i32, align 4
  %4 = alloca i32, align 4
  %5 = alloca i64, align 8
  store i32 %0, ptr %4, align 4, !tbaa !11
  store i64 %1, ptr %5, align 8, !tbaa !13
  %6 = load i32, ptr %4, align 4, !tbaa !11
  %7 = icmp sge i32 %6, 0
  br i1 %7, label %8, label %10

8:                                                ; preds = %2
  %9 = load i32, ptr %4, align 4, !tbaa !11
  store i32 %9, ptr %3, align 4
  br label %23

10:                                               ; preds = %2
  %11 = load i32, ptr %4, align 4, !tbaa !11
  %12 = sext i32 %11 to i64
  %13 = sub i64 0, %12
  %14 = load i64, ptr %5, align 8, !tbaa !13
  %15 = icmp ugt i64 %13, %14
  br i1 %15, label %16, label %17

16:                                               ; preds = %10
  store i32 0, ptr %3, align 4
  br label %23

17:                                               ; preds = %10
  %18 = load i64, ptr %5, align 8, !tbaa !13
  %19 = trunc i64 %18 to i32
  %20 = load i32, ptr %4, align 4, !tbaa !11
  %21 = add nsw i32 %19, %20
  %22 = add nsw i32 %21, 1
  store i32 %22, ptr %3, align 4
  br label %23

23:                                               ; preds = %17, %16, %8
  %24 = load i32, ptr %3, align 4
  ret i32 %24
}

; Function Attrs: mustprogress uwtable
define internal noundef i32 @_ZL6utflenP9lua_State(ptr noundef %0) #0 {
  %2 = alloca i32, align 4
  %3 = alloca ptr, align 8
  %4 = alloca i32, align 4
  %5 = alloca i64, align 8
  %6 = alloca ptr, align 8
  %7 = alloca i32, align 4
  %8 = alloca i32, align 4
  %9 = alloca ptr, align 8
  %10 = alloca i32, align 4
  store ptr %0, ptr %3, align 8, !tbaa !4
  call void @llvm.lifetime.start.p0(i64 4, ptr %4) #5
  store i32 0, ptr %4, align 4, !tbaa !11
  call void @llvm.lifetime.start.p0(i64 8, ptr %5) #5
  call void @llvm.lifetime.start.p0(i64 8, ptr %6) #5
  %11 = load ptr, ptr %3, align 8, !tbaa !4
  %12 = call noundef ptr @_Z17luaL_checklstringP9lua_StateiPm(ptr noundef %11, i32 noundef 1, ptr noundef %5)
  store ptr %12, ptr %6, align 8, !tbaa !9
  call void @llvm.lifetime.start.p0(i64 4, ptr %7) #5
  %13 = load ptr, ptr %3, align 8, !tbaa !4
  %14 = call noundef i32 @_Z15luaL_optintegerP9lua_Stateii(ptr noundef %13, i32 noundef 2, i32 noundef 1)
  %15 = load i64, ptr %5, align 8, !tbaa !13
  %16 = call noundef i32 @_ZL10u_posrelatim(i32 noundef %14, i64 noundef %15)
  store i32 %16, ptr %7, align 4, !tbaa !11
  call void @llvm.lifetime.start.p0(i64 4, ptr %8) #5
  %17 = load ptr, ptr %3, align 8, !tbaa !4
  %18 = call noundef i32 @_Z15luaL_optintegerP9lua_Stateii(ptr noundef %17, i32 noundef 3, i32 noundef -1)
  %19 = load i64, ptr %5, align 8, !tbaa !13
  %20 = call noundef i32 @_ZL10u_posrelatim(i32 noundef %18, i64 noundef %19)
  store i32 %20, ptr %8, align 4, !tbaa !11
  %21 = load i32, ptr %7, align 4, !tbaa !11
  %22 = icmp sle i32 1, %21
  br i1 %22, label %23, label %30

23:                                               ; preds = %1
  %24 = load i32, ptr %7, align 4, !tbaa !11
  %25 = add nsw i32 %24, -1
  store i32 %25, ptr %7, align 4, !tbaa !11
  %26 = load i64, ptr %5, align 8, !tbaa !13
  %27 = trunc i64 %26 to i32
  %28 = icmp sle i32 %25, %27
  br i1 %28, label %29, label %30

29:                                               ; preds = %23
  br label %33

30:                                               ; preds = %23, %1
  %31 = load ptr, ptr %3, align 8, !tbaa !4
  call void @_Z14luaL_argerrorLP9lua_StateiPKc(ptr noundef %31, i32 noundef 2, ptr noundef @.str.14) #6
  unreachable

32:                                               ; No predecessors!
  br label %33

33:                                               ; preds = %32, %29
  %34 = load i32, ptr %8, align 4, !tbaa !11
  %35 = add nsw i32 %34, -1
  store i32 %35, ptr %8, align 4, !tbaa !11
  %36 = load i64, ptr %5, align 8, !tbaa !13
  %37 = trunc i64 %36 to i32
  %38 = icmp slt i32 %35, %37
  br i1 %38, label %39, label %40

39:                                               ; preds = %33
  br label %43

40:                                               ; preds = %33
  %41 = load ptr, ptr %3, align 8, !tbaa !4
  call void @_Z14luaL_argerrorLP9lua_StateiPKc(ptr noundef %41, i32 noundef 3, ptr noundef @.str.15) #6
  unreachable

42:                                               ; No predecessors!
  br label %43

43:                                               ; preds = %42, %39
  br label %44

44:                                               ; preds = %72, %43
  %45 = load i32, ptr %7, align 4, !tbaa !11
  %46 = load i32, ptr %8, align 4, !tbaa !11
  %47 = icmp sle i32 %45, %46
  br i1 %47, label %48, label %73

48:                                               ; preds = %44
  call void @llvm.lifetime.start.p0(i64 8, ptr %9) #5
  %49 = load ptr, ptr %6, align 8, !tbaa !9
  %50 = load i32, ptr %7, align 4, !tbaa !11
  %51 = sext i32 %50 to i64
  %52 = getelementptr inbounds i8, ptr %49, i64 %51
  %53 = call noundef ptr @_ZL11utf8_decodePKcPi(ptr noundef %52, ptr noundef null)
  store ptr %53, ptr %9, align 8, !tbaa !9
  %54 = load ptr, ptr %9, align 8, !tbaa !9
  %55 = icmp eq ptr %54, null
  br i1 %55, label %56, label %61

56:                                               ; preds = %48
  %57 = load ptr, ptr %3, align 8, !tbaa !4
  call void @_Z11lua_pushnilP9lua_State(ptr noundef %57)
  %58 = load ptr, ptr %3, align 8, !tbaa !4
  %59 = load i32, ptr %7, align 4, !tbaa !11
  %60 = add nsw i32 %59, 1
  call void @_Z15lua_pushintegerP9lua_Statei(ptr noundef %58, i32 noundef %60)
  store i32 2, ptr %2, align 4
  store i32 1, ptr %10, align 4
  br label %70

61:                                               ; preds = %48
  %62 = load ptr, ptr %9, align 8, !tbaa !9
  %63 = load ptr, ptr %6, align 8, !tbaa !9
  %64 = ptrtoint ptr %62 to i64
  %65 = ptrtoint ptr %63 to i64
  %66 = sub i64 %64, %65
  %67 = trunc i64 %66 to i32
  store i32 %67, ptr %7, align 4, !tbaa !11
  %68 = load i32, ptr %4, align 4, !tbaa !11
  %69 = add nsw i32 %68, 1
  store i32 %69, ptr %4, align 4, !tbaa !11
  store i32 0, ptr %10, align 4
  br label %70

70:                                               ; preds = %61, %56
  call void @llvm.lifetime.end.p0(i64 8, ptr %9) #5
  %71 = load i32, ptr %10, align 4
  switch i32 %71, label %76 [
    i32 0, label %72
  ]

72:                                               ; preds = %70
  br label %44, !llvm.loop !24

73:                                               ; preds = %44
  %74 = load ptr, ptr %3, align 8, !tbaa !4
  %75 = load i32, ptr %4, align 4, !tbaa !11
  call void @_Z15lua_pushintegerP9lua_Statei(ptr noundef %74, i32 noundef %75)
  store i32 1, ptr %2, align 4
  store i32 1, ptr %10, align 4
  br label %76

76:                                               ; preds = %73, %70
  call void @llvm.lifetime.end.p0(i64 4, ptr %8) #5
  call void @llvm.lifetime.end.p0(i64 4, ptr %7) #5
  call void @llvm.lifetime.end.p0(i64 8, ptr %6) #5
  call void @llvm.lifetime.end.p0(i64 8, ptr %5) #5
  call void @llvm.lifetime.end.p0(i64 4, ptr %4) #5
  %77 = load i32, ptr %2, align 4
  ret i32 %77
}