; Function Attrs: mustprogress uwtable
define internal noundef range(i32 1, 3) i32 @_ZL6utflenP9lua_State(ptr noundef %0) #0 {
  %2 = alloca i64, align 8
  call void @llvm.lifetime.start.p0(i64 8, ptr nonnull %2) #4
  %3 = call noundef ptr @_Z17luaL_checklstringP9lua_StateiPm(ptr noundef %0, i32 noundef 1, ptr noundef nonnull %2)
  %4 = call noundef i32 @_Z15luaL_optintegerP9lua_Stateii(ptr noundef %0, i32 noundef 2, i32 noundef 1)
  %5 = load i64, ptr %2, align 8, !tbaa !4
  %6 = icmp sgt i32 %4, -1
  br i1 %6, label %_ZL10u_posrelatim.exit, label %7

7:                                                ; preds = %1
  %8 = sext i32 %4 to i64
  %9 = sub nsw i64 0, %8
  %10 = icmp ult i64 %5, %9
  br i1 %10, label %_ZL10u_posrelatim.exit, label %11

11:                                               ; preds = %7
  %12 = trunc i64 %5 to i32
  %13 = add nsw i32 %4, 1
  %14 = add i32 %13, %12
  br label %_ZL10u_posrelatim.exit

_ZL10u_posrelatim.exit:                           ; preds = %1, %7, %11
  %.0.i = phi i32 [ %14, %11 ], [ %4, %1 ], [ 0, %7 ]
  %15 = call noundef i32 @_Z15luaL_optintegerP9lua_Stateii(ptr noundef %0, i32 noundef 3, i32 noundef -1)
  %16 = load i64, ptr %2, align 8, !tbaa !4
  %17 = icmp sgt i32 %15, -1
  br i1 %17, label %_ZL10u_posrelatim.exit35, label %18

18:                                               ; preds = %_ZL10u_posrelatim.exit
  %19 = sext i32 %15 to i64
  %20 = sub nsw i64 0, %19
  %21 = icmp ult i64 %16, %20
  br i1 %21, label %_ZL10u_posrelatim.exit35, label %22

22:                                               ; preds = %18
  %23 = trunc i64 %16 to i32
  %24 = add nsw i32 %15, 1
  %25 = add i32 %24, %23
  br label %_ZL10u_posrelatim.exit35

_ZL10u_posrelatim.exit35:                         ; preds = %_ZL10u_posrelatim.exit, %18, %22
  %.0.i34 = phi i32 [ %25, %22 ], [ %15, %_ZL10u_posrelatim.exit ], [ 0, %18 ]
  %26 = icmp sgt i32 %.0.i, 0
  br i1 %26, label %27, label %30

27:                                               ; preds = %_ZL10u_posrelatim.exit35
  %28 = add nsw i32 %.0.i, -1
  %29 = trunc i64 %16 to i32
  %.not = icmp sgt i32 %28, %29
  br i1 %.not, label %30, label %31

30:                                               ; preds = %27, %_ZL10u_posrelatim.exit35
  call void @_Z14luaL_argerrorLP9lua_StateiPKc(ptr noundef %0, i32 noundef 2, ptr noundef nonnull @.str.14) #5
  unreachable

31:                                               ; preds = %27
  %.not31 = icmp sgt i32 %.0.i34, %29
  br i1 %.not31, label %33, label %.preheader

.preheader:                                       ; preds = %31
  %.not32.not52.not = icmp sgt i32 %.0.i, %.0.i34
  br i1 %.not32.not52.not, label %._crit_edge, label %.lr.ph

.lr.ph:                                           ; preds = %.preheader
  %32 = ptrtoint ptr %3 to i64
  br label %34

33:                                               ; preds = %31
  call void @_Z14luaL_argerrorLP9lua_StateiPKc(ptr noundef %0, i32 noundef 3, ptr noundef nonnull @.str.15) #5
  unreachable

34:                                               ; preds = %.lr.ph, %64
  %.02354 = phi i32 [ %28, %.lr.ph ], [ %68, %64 ]
  %.02553 = phi i32 [ 0, %.lr.ph ], [ %69, %64 ]
  %35 = sext i32 %.02354 to i64
  %36 = getelementptr inbounds i8, ptr %3, i64 %35
  %37 = load i8, ptr %36, align 1, !tbaa !8
  %38 = icmp sgt i8 %37, -1
  br i1 %38, label %64, label %.preheader.i.preheader

.preheader.i.preheader:                           ; preds = %34
  %39 = zext i8 %37 to i32
  br label %.preheader.i

.preheader.i:                                     ; preds = %.preheader.i.preheader, %41
  %indvars.iv.i = phi i64 [ %indvars.iv.next.i, %41 ], [ 0, %.preheader.i.preheader ]
  %.036.i = phi i32 [ %49, %41 ], [ %39, %.preheader.i.preheader ]
  %.133.i = phi i32 [ %48, %41 ], [ 0, %.preheader.i.preheader ]
  %40 = and i32 %.036.i, 64
  %.not.i = icmp eq i32 %40, 0
  br i1 %.not.i, label %50, label %41

41:                                               ; preds = %.preheader.i
  %indvars.iv.next.i = add nuw nsw i64 %indvars.iv.i, 1
  %42 = getelementptr inbounds nuw i8, ptr %36, i64 %indvars.iv.next.i
  %43 = load i8, ptr %42, align 1, !tbaa !8
  %44 = zext i8 %43 to i32
  %45 = and i32 %44, 192
  %.not45.i = icmp eq i32 %45, 128
  %46 = shl i32 %.133.i, 6
  %47 = and i32 %44, 63
  %48 = or disjoint i32 %47, %46
  %49 = shl i32 %.036.i, 1
  br i1 %.not45.i, label %.preheader.i, label %.thread, !llvm.loop !15

50:                                               ; preds = %.preheader.i
  %51 = trunc nuw nsw i64 %indvars.iv.i to i32
  %52 = and i32 %.036.i, 63
  %53 = mul nuw nsw i32 %51, 5
  %54 = shl i32 %52, %53
  %55 = or i32 %54, %.133.i
  %56 = icmp samesign ugt i64 %indvars.iv.i, 3
  %57 = icmp ugt i32 %55, 1114111
  %or.cond.i = select i1 %56, i1 true, i1 %57
  br i1 %or.cond.i, label %.thread, label %58

58:                                               ; preds = %50
  %59 = getelementptr inbounds nuw [4 x i32], ptr @_ZZL11utf8_decodePKcPiE6limits, i64 0, i64 %indvars.iv.i
  %60 = load i32, ptr %59, align 4, !tbaa !16
  %.not44.i = icmp ugt i32 %55, %60
  %61 = and i32 %55, 2095104
  %62 = icmp ne i32 %61, 55296
  %or.cond48.not.i = and i1 %62, %.not44.i
  %spec.select.idx.i = select i1 %or.cond48.not.i, i64 %indvars.iv.i, i64 0
  %spec.select.i = getelementptr inbounds nuw i8, ptr %36, i64 %spec.select.idx.i
  br i1 %or.cond48.not.i, label %64, label %.thread

.thread:                                          ; preds = %50, %58, %41
  call void @_Z11lua_pushnilP9lua_State(ptr noundef %0)
  %63 = add nsw i32 %.02354, 1
  br label %._crit_edge

64:                                               ; preds = %34, %58
  %.038.i = phi ptr [ %spec.select.i, %58 ], [ %36, %34 ]
  %65 = getelementptr inbounds nuw i8, ptr %.038.i, i64 1
  %66 = ptrtoint ptr %65 to i64
  %67 = sub i64 %66, %32
  %68 = trunc i64 %67 to i32
  %69 = add nuw nsw i32 %.02553, 1
  %.not32.not = icmp sgt i32 %.0.i34, %68
  br i1 %.not32.not, label %34, label %._crit_edge, !llvm.loop !21

._crit_edge:                                      ; preds = %64, %.preheader, %.thread
  %.sink = phi i32 [ %63, %.thread ], [ 0, %.preheader ], [ %69, %64 ]
  %.2 = phi i32 [ 2, %.thread ], [ 1, %.preheader ], [ 1, %64 ]
  call void @_Z15lua_pushintegerP9lua_Statei(ptr noundef %0, i32 noundef %.sink)
  call void @llvm.lifetime.end.p0(i64 8, ptr nonnull %2) #4
  ret i32 %.2
}